TN:
SF:/home/dfuentesc/2025-I-IntroSciCompHPC/2025-05-16-unitTesting_2/factorial.cpp
FN:16,24,_Z13raiz_cuadradai
FN:3,14,_Z9factoriall
FNDA:0,_Z13raiz_cuadradai
FNDA:44,_Z9factoriall
FNF:2
FNH:1
DA:3,44
DA:5,44
DA:6,38
DA:7,2
DA:8,2
DA:10,36
DA:16,0
DA:18,0
DA:19,0
DA:20,0
DA:22,0
LF:11
LH:6
end_of_record
TN:
SF:/home/dfuentesc/2025-I-IntroSciCompHPC/2025-05-16-unitTesting_2/test_factorial.cpp
FN:6,16,_ZL22CATCH2_INTERNAL_TEST_0v
FNDA:1,_ZL22CATCH2_INTERNAL_TEST_0v
FNF:1
FNH:1
DA:6,1
DA:7,1
DA:8,1
DA:9,1
DA:10,1
DA:11,1
DA:12,1
DA:13,1
DA:14,1
DA:16,1
LF:10
LH:10
end_of_record
TN:
SF:/mnt/scratch/salafis/v1/spack-packages/linux-slackware15-x86_64_v3/gcc-14.2.0/catch2-3.4.0-aw5g4pqlmg4asvs6vd6hpyiu4bbezmd4/include/catch2/catch_tostring.hpp
FN:149,151,_ZN5Catch6Detail9stringifyIiEENSt7__cxx1112basic_stringIcSt11char_traitsIcESaIcEEERKT_
FN:149,151,_ZN5Catch6Detail9stringifyIlEENSt7__cxx1112basic_stringIcSt11char_traitsIcESaIcEEERKT_
FNDA:0,_ZN5Catch6Detail9stringifyIiEENSt7__cxx1112basic_stringIcSt11char_traitsIcESaIcEEERKT_
FNDA:0,_ZN5Catch6Detail9stringifyIlEENSt7__cxx1112basic_stringIcSt11char_traitsIcESaIcEEERKT_
FNF:2
FNH:0
DA:149,0
DA:150,0
LF:2
LH:0
end_of_record
TN:
SF:/mnt/scratch/salafis/v1/spack-packages/linux-slackware15-x86_64_v3/gcc-14.2.0/catch2-3.4.0-aw5g4pqlmg4asvs6vd6hpyiu4bbezmd4/include/catch2/internal/catch_assertion_handler.hpp
FN:37,41,_ZN5Catch16AssertionHandlerD2Ev
FNDA:8,_ZN5Catch16AssertionHandlerD2Ev
FNF:1
FNH:1
DA:37,8
DA:38,8
DA:39,0
DA:41,8
LF:4
LH:3
end_of_record
TN:
SF:/mnt/scratch/salafis/v1/spack-packages/linux-slackware15-x86_64_v3/gcc-14.2.0/catch2-3.4.0-aw5g4pqlmg4asvs6vd6hpyiu4bbezmd4/include/catch2/internal/catch_decomposer.hpp
FN:168,168,_ZN5Catch7ExprLhsIlEC2El
FN:218,218,_ZN5CatcheqIiEENSt9enable_ifIXsrSt11conjunctionIJNS_6Detail16is_eq_comparableIlT_vEESt13is_arithmeticIS5_EEE5valueENS_10BinaryExprIlS5_EEE4typeEONS_7ExprLhsIlEES5_
FN:218,218,_ZN5CatcheqIlEENSt9enable_ifIXsrSt11conjunctionIJNS_6Detail16is_eq_comparableIlT_vEESt13is_arithmeticIS5_EEE5valueENS_10BinaryExprIlS5_EEE4typeEONS_7ExprLhsIlEES5_
FN:324,326,_ZN5CatchleIlLi0EEENS_7ExprLhsIT_EEONS_10DecomposerES2_
FN:51,54,_ZN5Catch20ITransientExpressionC2Ebb
FN:78,81,_ZNK5Catch10BinaryExprIliE29streamReconstructedExpressionERSo
FN:78,81,_ZNK5Catch10BinaryExprIllE29streamReconstructedExpressionERSo
FN:84,89,_ZN5Catch10BinaryExprIliEC2EblNS_9StringRefEi
FN:84,89,_ZN5Catch10BinaryExprIllEC2EblNS_9StringRefEl
FNDA:8,_ZN5Catch7ExprLhsIlEC2El
FNDA:7,_ZN5CatcheqIiEENSt9enable_ifIXsrSt11conjunctionIJNS_6Detail16is_eq_comparableIlT_vEESt13is_arithmeticIS5_EEE5valueENS_10BinaryExprIlS5_EEE4typeEONS_7ExprLhsIlEES5_
FNDA:1,_ZN5CatcheqIlEENSt9enable_ifIXsrSt11conjunctionIJNS_6Detail16is_eq_comparableIlT_vEESt13is_arithmeticIS5_EEE5valueENS_10BinaryExprIlS5_EEE4typeEONS_7ExprLhsIlEES5_
FNDA:8,_ZN5CatchleIlLi0EEENS_7ExprLhsIT_EEONS_10DecomposerES2_
FNDA:8,_ZN5Catch20ITransientExpressionC2Ebb
FNDA:0,_ZNK5Catch10BinaryExprIliE29streamReconstructedExpressionERSo
FNDA:0,_ZNK5Catch10BinaryExprIllE29streamReconstructedExpressionERSo
FNDA:7,_ZN5Catch10BinaryExprIliEC2EblNS_9StringRefEi
FNDA:1,_ZN5Catch10BinaryExprIllEC2EblNS_9StringRefEl
FNF:9
FNH:7
DA:51,8
DA:52,16
DA:53,16
DA:54,8
DA:78,0
DA:80,0
DA:81,0
DA:84,8
DA:86,8
DA:87,8
DA:88,16
DA:89,8
DA:168,8
DA:218,8
DA:324,8
DA:325,8
LF:16
LH:13
end_of_record
TN:
SF:/mnt/scratch/salafis/v1/spack-packages/linux-slackware15-x86_64_v3/gcc-14.2.0/catch2-3.4.0-aw5g4pqlmg4asvs6vd6hpyiu4bbezmd4/include/catch2/internal/catch_source_line_info.hpp
FN:19,22,_ZN5Catch14SourceLineInfoC2EPKcm
FNDA:9,_ZN5Catch14SourceLineInfoC2EPKcm
FNF:1
FNH:1
DA:19,9
DA:20,9
DA:21,9
DA:22,9
LF:4
LH:4
end_of_record
TN:
SF:/mnt/scratch/salafis/v1/spack-packages/linux-slackware15-x86_64_v3/gcc-14.2.0/catch2-3.4.0-aw5g4pqlmg4asvs6vd6hpyiu4bbezmd4/include/catch2/internal/catch_stringref.hpp
FN:112,114,_ZN5Catchli3_srEPKcm
FN:117,119,_Zli9_catch_srPKcm
FN:35,35,_ZN5Catch9StringRefC2Ev
FN:39,42,_ZN5Catch9StringRefC2EPKcm
FNDA:8,_ZN5Catchli3_srEPKcm
FNDA:16,_Zli9_catch_srPKcm
FNDA:1,_ZN5Catch9StringRefC2Ev
FNDA:24,_ZN5Catch9StringRefC2EPKcm
FNF:4
FNH:4
DA:35,1
DA:39,24
DA:40,24
DA:41,24
DA:42,24
DA:112,8
DA:113,8
DA:117,16
DA:118,16
LF:9
LH:9
end_of_record
TN:
SF:/mnt/scratch/salafis/v1/spack-packages/linux-slackware15-x86_64_v3/gcc-14.2.0/catch2-3.4.0-aw5g4pqlmg4asvs6vd6hpyiu4bbezmd4/include/catch2/internal/catch_test_registry.hpp
FN:51,53,_ZN5Catch11NameAndTagsC2ENS_9StringRefES1_
FNDA:1,_ZN5Catch11NameAndTagsC2ENS_9StringRefES1_
FNF:1
FNH:1
DA:51,1
DA:52,1
DA:53,1
LF:3
LH:3
end_of_record
TN:
SF:/mnt/scratch/salafis/v1/spack-packages/linux-slackware15-x86_64_v3/gcc-14.2.0/catch2-3.4.0-aw5g4pqlmg4asvs6vd6hpyiu4bbezmd4/include/catch2/internal/catch_unique_ptr.hpp
FN:59,61,_ZN5Catch6Detail10unique_ptrINS_12ITestInvokerEED2Ev
FNDA:1,_ZN5Catch6Detail10unique_ptrINS_12ITestInvokerEED2Ev
FNF:1
FNH:1
DA:59,1
DA:60,1
DA:61,1
LF:3
LH:3
end_of_record
TN:
SF:/usr/include/c++/14.2.0/bits/allocator.h
FNF:0
FNH:0
LF:0
LH:0
end_of_record
TN:
SF:/usr/include/c++/14.2.0/bits/basic_string.h
FNF:0
FNH:0
LF:0
LH:0
end_of_record
TN:
SF:/usr/include/c++/14.2.0/bits/new_allocator.h
FN:104,104,_ZNSt15__new_allocatorIcED2Ev
FNDA:0,_ZNSt15__new_allocatorIcED2Ev
FNF:1
FNH:0
DA:104,0
LF:1
LH:0
end_of_record
